target datalayout = "e-m:e-p270:32:32-p271:32:32-p272:64:64-i64:64-i128:128-f80:128-n8:16:32:64-S128"
target triple = "x86_64-pc-linux-gnu"

%struct.Trigger = type { i32, ptr, i32, i16, i8, i8, i8, i32, i32, i32, i8, i8, i16, i16, ptr, ptr, ptr, ptr, ptr }
%struct.TriggerDesc = type { ptr, i32, i8, i8, i8, i8, i8, i8, i8, i8, i8, i8, i8, i8, i8, i8, i8, i8, i8, i8, i8, i8, i8 }
%struct.ResultRelInfo = type { i32, i32, ptr, i32, ptr, ptr, i16, ptr, i8, ptr, ptr, ptr, i8, i8, ptr, ptr, ptr, ptr, ptr, ptr, ptr, ptr, ptr, ptr, i8, i32, i32, i32, ptr, ptr, ptr, ptr, ptr, ptr, ptr, i32, i32, ptr, ptr, ptr, ptr, [3 x ptr], ptr, ptr, ptr, i8, ptr, i8, ptr, ptr, ptr, ptr }
%struct.EState = type { i32, i32, ptr, ptr, ptr, i32, ptr, ptr, ptr, ptr, ptr, ptr, ptr, ptr, ptr, ptr, i32, ptr, ptr, ptr, ptr, ptr, ptr, ptr, ptr, ptr, ptr, i64, i64, i32, i32, i8, ptr, ptr, ptr, ptr, ptr, i8, i32, i32, ptr, i32, ptr, ptr, ptr, ptr }
%struct.ExprContext = type { i32, ptr, ptr, ptr, ptr, ptr, ptr, ptr, ptr, ptr, i64, i8, i64, i8, ptr, ptr, ptr, ptr }
%struct.ExprState = type { i32, i8, i8, i64, ptr, ptr, ptr, ptr, ptr, i32, i32, ptr, ptr, ptr, ptr, ptr, ptr, ptr }

@SessionReplicationRole = dso_local global i32 0, align 4
@CurrentMemoryContext = external global ptr, align 8

; Function Attrs: inlinehint nounwind uwtable
define internal zeroext i1 @DatumGetBool(i64 noundef %0) #7 {
  %2 = alloca i64, align 8
  store i64 %0, ptr %2, align 8
  %3 = load i64, ptr %2, align 8
  %4 = icmp ne i64 %3, 0
  ret i1 %4
}

; Function Attrs: inlinehint nounwind uwtable
define internal i64 @ExecEvalExprSwitchContext(ptr noundef %0, ptr noundef %1, ptr noundef %2) #7 {
  %4 = alloca ptr, align 8
  %5 = alloca ptr, align 8
  %6 = alloca ptr, align 8
  %7 = alloca i64, align 8
  %8 = alloca ptr, align 8
  store ptr %0, ptr %4, align 8
  store ptr %1, ptr %5, align 8
  store ptr %2, ptr %6, align 8
  call void @llvm.lifetime.start.p0(i64 8, ptr %7) #12
  call void @llvm.lifetime.start.p0(i64 8, ptr %8) #12
  %9 = load ptr, ptr %5, align 8
  %10 = getelementptr inbounds nuw %struct.ExprContext, ptr %9, i32 0, i32 5
  %11 = load ptr, ptr %10, align 8
  %12 = call ptr @MemoryContextSwitchTo(ptr noundef %11)
  store ptr %12, ptr %8, align 8
  %13 = load ptr, ptr %4, align 8
  %14 = getelementptr inbounds nuw %struct.ExprState, ptr %13, i32 0, i32 6
  %15 = load ptr, ptr %14, align 8
  %16 = load ptr, ptr %4, align 8
  %17 = load ptr, ptr %5, align 8
  %18 = load ptr, ptr %6, align 8
  %19 = call i64 %15(ptr noundef %16, ptr noundef %17, ptr noundef %18)
  store i64 %19, ptr %7, align 8
  %20 = load ptr, ptr %8, align 8
  %21 = call ptr @MemoryContextSwitchTo(ptr noundef %20)
  %22 = load i64, ptr %7, align 8
  call void @llvm.lifetime.end.p0(i64 8, ptr %8) #12
  call void @llvm.lifetime.end.p0(i64 8, ptr %7) #12
  ret i64 %22
}

; Function Attrs: inlinehint nounwind uwtable
define internal zeroext i1 @ExecQual(ptr noundef %0, ptr noundef %1) #7 {
  %3 = alloca i1, align 1
  %4 = alloca ptr, align 8
  %5 = alloca ptr, align 8
  %6 = alloca i64, align 8
  %7 = alloca i8, align 1
  %8 = alloca i32, align 4
  store ptr %0, ptr %4, align 8
  store ptr %1, ptr %5, align 8
  call void @llvm.lifetime.start.p0(i64 8, ptr %6) #12
  call void @llvm.lifetime.start.p0(i64 1, ptr %7) #12
  %9 = load ptr, ptr %4, align 8
  %10 = icmp eq ptr %9, null
  br i1 %10, label %11, label %12

11:                                               ; preds = %2
  store i1 true, ptr %3, align 1
  store i32 1, ptr %8, align 4
  br label %18

12:                                               ; preds = %2
  %13 = load ptr, ptr %4, align 8
  %14 = load ptr, ptr %5, align 8
  %15 = call i64 @ExecEvalExprSwitchContext(ptr noundef %13, ptr noundef %14, ptr noundef %7)
  store i64 %15, ptr %6, align 8
  %16 = load i64, ptr %6, align 8
  %17 = call zeroext i1 @DatumGetBool(i64 noundef %16)
  store i1 %17, ptr %3, align 1
  store i32 1, ptr %8, align 4
  br label %18

18:                                               ; preds = %12, %11
  call void @llvm.lifetime.end.p0(i64 1, ptr %7) #12
  call void @llvm.lifetime.end.p0(i64 8, ptr %6) #12
  %19 = load i1, ptr %3, align 1
  ret i1 %19
}

; Function Attrs: inlinehint nounwind uwtable
define internal ptr @MemoryContextSwitchTo(ptr noundef %0) #7 {
  %2 = alloca ptr, align 8
  %3 = alloca ptr, align 8
  store ptr %0, ptr %2, align 8
  call void @llvm.lifetime.start.p0(i64 8, ptr %3) #12
  %4 = load ptr, ptr @CurrentMemoryContext, align 8
  store ptr %4, ptr %3, align 8
  %5 = load ptr, ptr %2, align 8
  store ptr %5, ptr @CurrentMemoryContext, align 8
  %6 = load ptr, ptr %3, align 8
  call void @llvm.lifetime.end.p0(i64 8, ptr %3) #12
  ret ptr %6
}

; Function Attrs: nounwind uwtable
define internal zeroext i1 @TriggerEnabled(ptr noundef %0, ptr noundef %1, ptr noundef %2, i32 noundef %3, ptr noundef %4, ptr noundef %5, ptr noundef %6) #0 {
  %8 = alloca i1, align 1
  %9 = alloca ptr, align 8
  %10 = alloca ptr, align 8
  %11 = alloca ptr, align 8
  %12 = alloca i32, align 4
  %13 = alloca ptr, align 8
  %14 = alloca ptr, align 8
  %15 = alloca ptr, align 8
  %16 = alloca i32, align 4
  %17 = alloca i8, align 1
  %18 = alloca i32, align 4
  %19 = alloca ptr, align 8
  %20 = alloca ptr, align 8
  %21 = alloca ptr, align 8
  %22 = alloca i32, align 4
  %23 = alloca ptr, align 8
  store ptr %0, ptr %9, align 8
  store ptr %1, ptr %10, align 8
  store ptr %2, ptr %11, align 8
  store i32 %3, ptr %12, align 4
  store ptr %4, ptr %13, align 8
  store ptr %5, ptr %14, align 8
  store ptr %6, ptr %15, align 8
  %24 = load i32, ptr @SessionReplicationRole, align 4
  %25 = icmp eq i32 %24, 1
  br i1 %25, label %26, label %40

26:                                               ; preds = %7
  %27 = load ptr, ptr %11, align 8
  %28 = getelementptr inbounds nuw %struct.Trigger, ptr %27, i32 0, i32 4
  %29 = load i8, ptr %28, align 2
  %30 = sext i8 %29 to i32
  %31 = icmp eq i32 %30, 79
  br i1 %31, label %38, label %32

32:                                               ; preds = %26
  %33 = load ptr, ptr %11, align 8
  %34 = getelementptr inbounds nuw %struct.Trigger, ptr %33, i32 0, i32 4
  %35 = load i8, ptr %34, align 2
  %36 = sext i8 %35 to i32
  %37 = icmp eq i32 %36, 68
  br i1 %37, label %38, label %39

38:                                               ; preds = %32, %26
  store i1 false, ptr %8, align 1
  br label %182

39:                                               ; preds = %32
  br label %54

40:                                               ; preds = %7
  %41 = load ptr, ptr %11, align 8
  %42 = getelementptr inbounds nuw %struct.Trigger, ptr %41, i32 0, i32 4
  %43 = load i8, ptr %42, align 2
  %44 = sext i8 %43 to i32
  %45 = icmp eq i32 %44, 82
  br i1 %45, label %52, label %46

46:                                               ; preds = %40
  %47 = load ptr, ptr %11, align 8
  %48 = getelementptr inbounds nuw %struct.Trigger, ptr %47, i32 0, i32 4
  %49 = load i8, ptr %48, align 2
  %50 = sext i8 %49 to i32
  %51 = icmp eq i32 %50, 68
  br i1 %51, label %52, label %53

52:                                               ; preds = %46, %40
  store i1 false, ptr %8, align 1
  br label %182

53:                                               ; preds = %46
  br label %54

54:                                               ; preds = %53, %39
  %55 = load ptr, ptr %11, align 8
  %56 = getelementptr inbounds nuw %struct.Trigger, ptr %55, i32 0, i32 13
  %57 = load i16, ptr %56, align 4
  %58 = sext i16 %57 to i32
  %59 = icmp sgt i32 %58, 0
  br i1 %59, label %60, label %97

60:                                               ; preds = %54
  %61 = load i32, ptr %12, align 4
  %62 = and i32 %61, 3
  %63 = icmp eq i32 %62, 2
  br i1 %63, label %64, label %97

64:                                               ; preds = %60
  call void @llvm.lifetime.start.p0(i64 4, ptr %16) #12
  call void @llvm.lifetime.start.p0(i64 1, ptr %17) #12
  store i8 0, ptr %17, align 1
  store i32 0, ptr %16, align 4
  br label %65

65:                                               ; preds = %86, %64
  %66 = load i32, ptr %16, align 4
  %67 = load ptr, ptr %11, align 8
  %68 = getelementptr inbounds nuw %struct.Trigger, ptr %67, i32 0, i32 13
  %69 = load i16, ptr %68, align 4
  %70 = sext i16 %69 to i32
  %71 = icmp slt i32 %66, %70
  br i1 %71, label %72, label %89

72:                                               ; preds = %65
  %73 = load ptr, ptr %11, align 8
  %74 = getelementptr inbounds nuw %struct.Trigger, ptr %73, i32 0, i32 14
  %75 = load ptr, ptr %74, align 8
  %76 = load i32, ptr %16, align 4
  %77 = sext i32 %76 to i64
  %78 = getelementptr inbounds i16, ptr %75, i64 %77
  %79 = load i16, ptr %78, align 2
  %80 = sext i16 %79 to i32
  %81 = sub i32 %80, -7
  %82 = load ptr, ptr %13, align 8
  %83 = call zeroext i1 @bms_is_member(i32 noundef %81, ptr noundef %82)
  br i1 %83, label %84, label %85

84:                                               ; preds = %72
  store i8 1, ptr %17, align 1
  br label %89

85:                                               ; preds = %72
  br label %86

86:                                               ; preds = %85
  %87 = load i32, ptr %16, align 4
  %88 = add i32 %87, 1
  store i32 %88, ptr %16, align 4
  br label %65, !llvm.loop !31

89:                                               ; preds = %84, %65
  %90 = load i8, ptr %17, align 1, !range !4, !noundef !5
  %91 = trunc i8 %90 to i1
  br i1 %91, label %93, label %92

92:                                               ; preds = %89
  store i1 false, ptr %8, align 1
  store i32 1, ptr %18, align 4
  br label %94

93:                                               ; preds = %89
  store i32 0, ptr %18, align 4
  br label %94

94:                                               ; preds = %93, %92
  call void @llvm.lifetime.end.p0(i64 1, ptr %17) #12
  call void @llvm.lifetime.end.p0(i64 4, ptr %16) #12
  %95 = load i32, ptr %18, align 4
  switch i32 %95, label %184 [
    i32 0, label %96
    i32 1, label %182
  ]

96:                                               ; preds = %94
  br label %97

97:                                               ; preds = %96, %60, %54
  %98 = load ptr, ptr %11, align 8
  %99 = getelementptr inbounds nuw %struct.Trigger, ptr %98, i32 0, i32 16
  %100 = load ptr, ptr %99, align 8
  %101 = icmp ne ptr %100, null
  br i1 %101, label %102, label %181

102:                                              ; preds = %97
  call void @llvm.lifetime.start.p0(i64 8, ptr %19) #12
  call void @llvm.lifetime.start.p0(i64 8, ptr %20) #12
  call void @llvm.lifetime.start.p0(i64 8, ptr %21) #12
  call void @llvm.lifetime.start.p0(i64 4, ptr %22) #12
  %103 = load ptr, ptr %11, align 8
  %104 = load ptr, ptr %10, align 8
  %105 = getelementptr inbounds nuw %struct.ResultRelInfo, ptr %104, i32 0, i32 14
  %106 = load ptr, ptr %105, align 8
  %107 = getelementptr inbounds nuw %struct.TriggerDesc, ptr %106, i32 0, i32 0
  %108 = load ptr, ptr %107, align 8
  %109 = ptrtoint ptr %103 to i64
  %110 = ptrtoint ptr %108 to i64
  %111 = sub i64 %109, %110
  %112 = sdiv exact i64 %111, 88
  %113 = trunc i64 %112 to i32
  store i32 %113, ptr %22, align 4
  %114 = load ptr, ptr %10, align 8
  %115 = getelementptr inbounds nuw %struct.ResultRelInfo, ptr %114, i32 0, i32 16
  %116 = load ptr, ptr %115, align 8
  %117 = load i32, ptr %22, align 4
  %118 = sext i32 %117 to i64
  %119 = getelementptr inbounds ptr, ptr %116, i64 %118
  store ptr %119, ptr %19, align 8
  %120 = load ptr, ptr %19, align 8
  %121 = load ptr, ptr %120, align 8
  %122 = icmp eq ptr %121, null
  br i1 %122, label %123, label %152

123:                                              ; preds = %102
  call void @llvm.lifetime.start.p0(i64 8, ptr %23) #12
  %124 = load ptr, ptr %9, align 8
  %125 = getelementptr inbounds nuw %struct.EState, ptr %124, i32 0, i32 25
  %126 = load ptr, ptr %125, align 8
  %127 = call ptr @MemoryContextSwitchTo(ptr noundef %126)
  store ptr %127, ptr %21, align 8
  %128 = load ptr, ptr %11, align 8
  %129 = getelementptr inbounds nuw %struct.Trigger, ptr %128, i32 0, i32 16
  %130 = load ptr, ptr %129, align 8
  %131 = call ptr @stringToNode(ptr noundef %130)
  store ptr %131, ptr %23, align 8
  %132 = load ptr, ptr %23, align 8
  %133 = load ptr, ptr %10, align 8
  %134 = getelementptr inbounds nuw %struct.ResultRelInfo, ptr %133, i32 0, i32 2
  %135 = load ptr, ptr %134, align 8
  %136 = call ptr @expand_generated_columns_in_expr(ptr noundef %132, ptr noundef %135, i32 noundef 1)
  store ptr %136, ptr %23, align 8
  %137 = load ptr, ptr %23, align 8
  %138 = load ptr, ptr %10, align 8
  %139 = getelementptr inbounds nuw %struct.ResultRelInfo, ptr %138, i32 0, i32 2
  %140 = load ptr, ptr %139, align 8
  %141 = call ptr @expand_generated_columns_in_expr(ptr noundef %137, ptr noundef %140, i32 noundef 2)
  store ptr %141, ptr %23, align 8
  %142 = load ptr, ptr %23, align 8
  call void @ChangeVarNodes(ptr noundef %142, i32 noundef 1, i32 noundef -1, i32 noundef 0)
  %143 = load ptr, ptr %23, align 8
  call void @ChangeVarNodes(ptr noundef %143, i32 noundef 2, i32 noundef -2, i32 noundef 0)
  %144 = load ptr, ptr %23, align 8
  %145 = call ptr @make_ands_implicit(ptr noundef %144)
  store ptr %145, ptr %23, align 8
  %146 = load ptr, ptr %23, align 8
  %147 = load ptr, ptr %9, align 8
  %148 = call ptr @ExecPrepareQual(ptr noundef %146, ptr noundef %147)
  %149 = load ptr, ptr %19, align 8
  store ptr %148, ptr %149, align 8
  %150 = load ptr, ptr %21, align 8
  %151 = call ptr @MemoryContextSwitchTo(ptr noundef %150)
  call void @llvm.lifetime.end.p0(i64 8, ptr %23) #12
  br label %152

152:                                              ; preds = %123, %102
  %153 = load ptr, ptr %9, align 8
  %154 = getelementptr inbounds nuw %struct.EState, ptr %153, i32 0, i32 35
  %155 = load ptr, ptr %154, align 8
  %156 = icmp ne ptr %155, null
  br i1 %156, label %157, label %161

157:                                              ; preds = %152
  %158 = load ptr, ptr %9, align 8
  %159 = getelementptr inbounds nuw %struct.EState, ptr %158, i32 0, i32 35
  %160 = load ptr, ptr %159, align 8
  br label %164

161:                                              ; preds = %152
  %162 = load ptr, ptr %9, align 8
  %163 = call ptr @MakePerTupleExprContext(ptr noundef %162)
  br label %164

164:                                              ; preds = %161, %157
  %165 = phi ptr [ %160, %157 ], [ %163, %161 ]
  store ptr %165, ptr %20, align 8
  %166 = load ptr, ptr %14, align 8
  %167 = load ptr, ptr %20, align 8
  %168 = getelementptr inbounds nuw %struct.ExprContext, ptr %167, i32 0, i32 2
  store ptr %166, ptr %168, align 8
  %169 = load ptr, ptr %15, align 8
  %170 = load ptr, ptr %20, align 8
  %171 = getelementptr inbounds nuw %struct.ExprContext, ptr %170, i32 0, i32 3
  store ptr %169, ptr %171, align 8
  %172 = load ptr, ptr %19, align 8
  %173 = load ptr, ptr %172, align 8
  %174 = load ptr, ptr %20, align 8
  %175 = call zeroext i1 @ExecQual(ptr noundef %173, ptr noundef %174)
  br i1 %175, label %177, label %176

176:                                              ; preds = %164
  store i1 false, ptr %8, align 1
  store i32 1, ptr %18, align 4
  br label %178

177:                                              ; preds = %164
  store i32 0, ptr %18, align 4
  br label %178

178:                                              ; preds = %177, %176
  call void @llvm.lifetime.end.p0(i64 4, ptr %22) #12
  call void @llvm.lifetime.end.p0(i64 8, ptr %21) #12
  call void @llvm.lifetime.end.p0(i64 8, ptr %20) #12
  call void @llvm.lifetime.end.p0(i64 8, ptr %19) #12
  %179 = load i32, ptr %18, align 4
  switch i32 %179, label %184 [
    i32 0, label %180
    i32 1, label %182
  ]

180:                                              ; preds = %178
  br label %181

181:                                              ; preds = %180, %97
  store i1 true, ptr %8, align 1
  br label %182

182:                                              ; preds = %181, %178, %94, %52, %38
  %183 = load i1, ptr %8, align 1
  ret i1 %183

184:                                              ; preds = %178, %94
  unreachable
}