; Function Attrs: nounwind uwtable
define internal fastcc noundef zeroext i1 @TriggerEnabled(ptr noundef %0, ptr noundef readonly captures(none) %1, ptr noundef %2, i32 noundef %3, ptr noundef %4, ptr noundef %5, ptr noundef %6) unnamed_addr #0 {
  %8 = alloca i8, align 1
  %9 = load i32, ptr @SessionReplicationRole, align 4
  %10 = icmp eq i32 %9, 1
  %11 = getelementptr inbounds nuw i8, ptr %2, i64 22
  %12 = load i8, ptr %11, align 2
  br i1 %10, label %13, label %14

13:                                               ; preds = %7
  switch i8 %12, label %15 [
    i8 79, label %.loopexit
    i8 68, label %.loopexit
  ]

14:                                               ; preds = %7
  switch i8 %12, label %15 [
    i8 82, label %.loopexit
    i8 68, label %.loopexit
  ]

15:                                               ; preds = %14, %13
  %16 = getelementptr inbounds nuw i8, ptr %2, i64 44
  %17 = load i16, ptr %16, align 4
  %18 = icmp sgt i16 %17, 0
  %19 = and i32 %3, 3
  %20 = icmp eq i32 %19, 2
  %or.cond = and i1 %20, %18
  br i1 %or.cond, label %.lr.ph, label %.thread

.lr.ph:                                           ; preds = %15
  %21 = getelementptr inbounds nuw i8, ptr %2, i64 48
  br label %25

22:                                               ; preds = %25
  %indvars.iv.next = add nuw nsw i64 %indvars.iv, 1
  %23 = load i16, ptr %16, align 4
  %24 = sext i16 %23 to i64
  %.not56 = icmp slt i64 %indvars.iv.next, %24
  br i1 %.not56, label %25, label %.loopexit, !llvm.loop !29

25:                                               ; preds = %.lr.ph, %22
  %indvars.iv = phi i64 [ 0, %.lr.ph ], [ %indvars.iv.next, %22 ]
  %26 = load ptr, ptr %21, align 8
  %27 = getelementptr inbounds nuw i16, ptr %26, i64 %indvars.iv
  %28 = load i16, ptr %27, align 2
  %29 = sext i16 %28 to i32
  %30 = add nsw i32 %29, 7
  %31 = tail call zeroext i1 @bms_is_member(i32 noundef %30, ptr noundef %4) #16
  br i1 %31, label %.thread, label %22

.thread:                                          ; preds = %25, %15
  %32 = getelementptr inbounds nuw i8, ptr %2, i64 64
  %33 = load ptr, ptr %32, align 8
  %.not = icmp eq ptr %33, null
  br i1 %.not, label %77, label %34

34:                                               ; preds = %.thread
  %35 = getelementptr inbounds nuw i8, ptr %1, i64 96
  %36 = load ptr, ptr %35, align 8
  %37 = load ptr, ptr %36, align 8
  %38 = ptrtoint ptr %2 to i64
  %39 = ptrtoint ptr %37 to i64
  %40 = sub i64 %38, %39
  %41 = sdiv exact i64 %40, 88
  %42 = getelementptr inbounds nuw i8, ptr %1, i64 112
  %43 = load ptr, ptr %42, align 8
  %sext = shl i64 %41, 32
  %44 = ashr exact i64 %sext, 29
  %45 = getelementptr inbounds i8, ptr %43, i64 %44
  %46 = load ptr, ptr %45, align 8
  %47 = icmp eq ptr %46, null
  br i1 %47, label %48, label %60

48:                                               ; preds = %34
  %49 = getelementptr inbounds nuw i8, ptr %0, i64 192
  %50 = load ptr, ptr %49, align 8
  %51 = load ptr, ptr @CurrentMemoryContext, align 8
  store ptr %50, ptr @CurrentMemoryContext, align 8
  %52 = tail call ptr @stringToNode(ptr noundef nonnull %33) #16
  %53 = getelementptr inbounds nuw i8, ptr %1, i64 8
  %54 = load ptr, ptr %53, align 8
  %55 = tail call ptr @expand_generated_columns_in_expr(ptr noundef %52, ptr noundef %54, i32 noundef 1) #16
  %56 = load ptr, ptr %53, align 8
  %57 = tail call ptr @expand_generated_columns_in_expr(ptr noundef %55, ptr noundef %56, i32 noundef 2) #16
  tail call void @ChangeVarNodes(ptr noundef %57, i32 noundef 1, i32 noundef -1, i32 noundef 0) #16
  tail call void @ChangeVarNodes(ptr noundef %57, i32 noundef 2, i32 noundef -2, i32 noundef 0) #16
  %58 = tail call ptr @make_ands_implicit(ptr noundef %57) #16
  %59 = tail call ptr @ExecPrepareQual(ptr noundef %58, ptr noundef %0) #16
  store ptr %59, ptr %45, align 8
  store ptr %51, ptr @CurrentMemoryContext, align 8
  br label %60

60:                                               ; preds = %48, %34
  %61 = getelementptr inbounds nuw i8, ptr %0, i64 264
  %62 = load ptr, ptr %61, align 8
  %.not50 = icmp eq ptr %62, null
  br i1 %.not50, label %63, label %65

63:                                               ; preds = %60
  %64 = tail call ptr @MakePerTupleExprContext(ptr noundef nonnull %0) #16
  br label %65

65:                                               ; preds = %60, %63
  %66 = phi ptr [ %64, %63 ], [ %62, %60 ]
  %67 = getelementptr inbounds nuw i8, ptr %66, i64 16
  store ptr %5, ptr %67, align 8
  %68 = getelementptr inbounds nuw i8, ptr %66, i64 24
  store ptr %6, ptr %68, align 8
  %69 = load ptr, ptr %45, align 8
  call void @llvm.lifetime.start.p0(i64 1, ptr nonnull %8) #16
  %70 = icmp eq ptr %69, null
  br i1 %70, label %ExecQual.exit.thread, label %ExecQual.exit

ExecQual.exit.thread:                             ; preds = %65
  call void @llvm.lifetime.end.p0(i64 1, ptr nonnull %8) #16
  br label %77

ExecQual.exit:                                    ; preds = %65
  %71 = getelementptr inbounds nuw i8, ptr %66, i64 40
  %72 = load ptr, ptr %71, align 8
  %73 = load ptr, ptr @CurrentMemoryContext, align 8
  store ptr %72, ptr @CurrentMemoryContext, align 8
  %74 = getelementptr inbounds nuw i8, ptr %69, i64 32
  %75 = load ptr, ptr %74, align 8
  %76 = call i64 %75(ptr noundef nonnull %69, ptr noundef nonnull %66, ptr noundef nonnull %8) #16
  store ptr %73, ptr @CurrentMemoryContext, align 8
  %.not57 = icmp eq i64 %76, 0
  call void @llvm.lifetime.end.p0(i64 1, ptr nonnull %8) #16
  br i1 %.not57, label %.loopexit, label %77

77:                                               ; preds = %ExecQual.exit.thread, %ExecQual.exit, %.thread
  br label %.loopexit

.loopexit:                                        ; preds = %22, %ExecQual.exit, %14, %14, %13, %13, %77
  %.0 = phi i1 [ false, %ExecQual.exit ], [ true, %77 ], [ false, %13 ], [ false, %13 ], [ false, %14 ], [ false, %14 ], [ false, %22 ]
  ret i1 %.0
}